
matrix:     file format elf64-x86-64

Contents of section .interp:
 0318 2f6c6962 36342f6c 642d6c69 6e75782d  /lib64/ld-linux-
 0328 7838362d 36342e73 6f2e3200           x86-64.so.2.    
Contents of section .note.gnu.property:
 0338 04000000 10000000 05000000 474e5500  ............GNU.
 0348 028000c0 04000000 01000000 00000000  ................
Contents of section .note.gnu.build-id:
 0358 04000000 14000000 03000000 474e5500  ............GNU.
 0368 d315f81e c0acba26 601bed3a c8b6f6ea  .......&`..:....
 0378 d3a376ad                             ..v.            
Contents of section .note.ABI-tag:
 037c 04000000 10000000 01000000 474e5500  ............GNU.
 038c 00000000 04000000 04000000 00000000  ................
Contents of section .gnu.hash:
 03a0 02000000 10000000 01000000 06000000  ................
 03b0 00002000 80011000 10000000 11000000  .. .............
 03c0 291d8c1c 67556110                    )...gUa.        
Contents of section .dynsym:
 03c8 00000000 00000000 00000000 00000000  ................
 03d8 00000000 00000000 71000000 12000000  ........q.......
 03e8 00000000 00000000 00000000 00000000  ................
 03f8 96000000 20000000 00000000 00000000  .... ...........
 0408 00000000 00000000 11000000 12000000  ................
 0418 00000000 00000000 00000000 00000000  ................
 0428 3a000000 12000000 00000000 00000000  :...............
 0438 00000000 00000000 16000000 12000000  ................
 0448 00000000 00000000 00000000 00000000  ................
 0458 5f000000 12000000 00000000 00000000  _...............
 0468 00000000 00000000 2d000000 12000000  ........-.......
 0478 00000000 00000000 00000000 00000000  ................
 0488 0c000000 12000000 00000000 00000000  ................
 0498 00000000 00000000 b2000000 20000000  ............ ...
 04a8 00000000 00000000 00000000 00000000  ................
 04b8 41000000 12000000 00000000 00000000  A...............
 04c8 00000000 00000000 57000000 12000000  ........W.......
 04d8 00000000 00000000 00000000 00000000  ................
 04e8 06000000 12000000 00000000 00000000  ................
 04f8 00000000 00000000 c1000000 20000000  ............ ...
 0508 00000000 00000000 00000000 00000000  ................
 0518 48000000 22000000 00000000 00000000  H..."...........
 0528 00000000 00000000 01000000 12000000  ................
 0538 00000000 00000000 00000000 00000000  ................
 0548 33000000 11001900 80400000 00000000  3........@......
 0558 08000000 00000000 27000000 11001900  ........'.......
 0568 90400000 00000000 08000000 00000000  .@..............
Contents of section .dynstr:
 0578 00676574 6300666f 70656e00 70757463  .getc.fopen.putc
 0588 00707574 73005f5f 73746163 6b5f6368  .puts.__stack_ch
 0598 6b5f6661 696c0073 7464696e 00666765  k_fail.stdin.fge
 05a8 74730073 74646f75 74006663 6c6f7365  ts.stdout.fclose
 05b8 006d616c 6c6f6300 5f5f6378 615f6669  .malloc.__cxa_fi
 05c8 6e616c69 7a650073 65747662 7566005f  nalize.setvbuf._
 05d8 5f6c6962 635f7374 6172745f 6d61696e  _libc_start_main
 05e8 00667265 65006c69 62632e73 6f2e3600  .free.libc.so.6.
 05f8 474c4942 435f322e 3400474c 4942435f  GLIBC_2.4.GLIBC_
 0608 322e322e 35005f49 544d5f64 65726567  2.2.5._ITM_dereg
 0618 69737465 72544d43 6c6f6e65 5461626c  isterTMCloneTabl
 0628 65005f5f 676d6f6e 5f737461 72745f5f  e.__gmon_start__
 0638 005f4954 4d5f7265 67697374 6572544d  ._ITM_registerTM
 0648 436c6f6e 65546162 6c6500             CloneTable.     
Contents of section .gnu.version:
 0654 00000200 00000200 02000300 02000200  ................
 0664 02000000 02000200 02000000 02000200  ................
 0674 02000200                             ....            
Contents of section .gnu.version_r:
 0678 01000200 76000000 10000000 00000000  ....v...........
 0688 1469690d 00000300 80000000 10000000  .ii.............
 0698 751a6909 00000200 8a000000 00000000  u.i.............
Contents of section .rela.dyn:
 06a8 e83d0000 00000000 08000000 00000000  .=..............
 06b8 10130000 00000000 f03d0000 00000000  .........=......
 06c8 08000000 00000000 c0120000 00000000  ................
 06d8 70400000 00000000 08000000 00000000  p@..............
 06e8 70400000 00000000 d83f0000 00000000  p@.......?......
 06f8 06000000 02000000 00000000 00000000  ................
 0708 e03f0000 00000000 06000000 06000000  .?..............
 0718 00000000 00000000 e83f0000 00000000  .........?......
 0728 06000000 09000000 00000000 00000000  ................
 0738 f03f0000 00000000 06000000 0d000000  .?..............
 0748 00000000 00000000 f83f0000 00000000  .........?......
 0758 06000000 0e000000 00000000 00000000  ................
 0768 80400000 00000000 05000000 10000000  .@..............
 0778 00000000 00000000 90400000 00000000  .........@......
 0788 05000000 11000000 00000000 00000000  ................
Contents of section .rela.plt:
 0798 18400000 00000000 07000000 01000000  .@..............
 07a8 00000000 00000000 20400000 00000000  ........ @......
 07b8 07000000 03000000 00000000 00000000  ................
 07c8 28400000 00000000 07000000 04000000  (@..............
 07d8 00000000 00000000 30400000 00000000  ........0@......
 07e8 07000000 05000000 00000000 00000000  ................
 07f8 38400000 00000000 07000000 07000000  8@..............
 0808 00000000 00000000 40400000 00000000  ........@@......
 0818 07000000 08000000 00000000 00000000  ................
 0828 48400000 00000000 07000000 0a000000  H@..............
 0838 00000000 00000000 50400000 00000000  ........P@......
 0848 07000000 0b000000 00000000 00000000  ................
 0858 58400000 00000000 07000000 0c000000  X@..............
 0868 00000000 00000000 60400000 00000000  ........`@......
 0878 07000000 0f000000 00000000 00000000  ................
Contents of section .init:
 1000 f30f1efa 4883ec08 488b05d9 2f000048  ....H...H.../..H
 1010 85c07402 ffd04883 c408c3             ..t...H....     
Contents of section .plt:
 1020 ff35e22f 0000ff25 e42f0000 0f1f4000  .5./...%./....@.
 1030 ff25e22f 00006800 000000e9 e0ffffff  .%./..h.........
 1040 ff25da2f 00006801 000000e9 d0ffffff  .%./..h.........
 1050 ff25d22f 00006802 000000e9 c0ffffff  .%./..h.........
 1060 ff25ca2f 00006803 000000e9 b0ffffff  .%./..h.........
 1070 ff25c22f 00006804 000000e9 a0ffffff  .%./..h.........
 1080 ff25ba2f 00006805 000000e9 90ffffff  .%./..h.........
 1090 ff25b22f 00006806 000000e9 80ffffff  .%./..h.........
 10a0 ff25aa2f 00006807 000000e9 70ffffff  .%./..h.....p...
 10b0 ff25a22f 00006808 000000e9 60ffffff  .%./..h.....`...
 10c0 ff259a2f 00006809 000000e9 50ffffff  .%./..h.....P...
Contents of section .text:
 10d0 4155b900 200000ba 01000000 31f64154  AU.. .......1.AT
 10e0 55534881 ec580100 00488b3d 902f0000  USH..X...H.=./..
 10f0 64488b04 25280000 00488984 24480100  dH..%(...H..$H..
 1100 0031c048 8d6c240c 488d5c24 10e88eff  .1.H.l$.H.\$....
 1110 ffffbf00 080000e8 74ffffff bf000800  ........t.......
 1120 004989c5 e867ffff ff66490f 6ec5488d  .I...g...fI.n.H.
 1130 0deb0100 004989c4 488d05b1 0f000048  .....I..H......H
 1140 89442410 66490f6e cc31c066 0f6cc166  .D$.fI.n.1.f.l.f
 1150 89442418 488d05e5 0100000f 29442420  .D$.H.......)D$ 
 1160 66480f6e d066480f 6ec1660f 6cc20f29  fH.n.fH.n.f.l..)
 1170 4424300f 1f440000 4889ee48 89dfe8cd  D$0..D..H..H....
 1180 01000084 c075f14c 89efe8a1 feffff4c  .....u.L.......L
 1190 89e7e899 feffff80 7c240c00 75776683  ........|$..uwf.
 11a0 7c240e00 74260fb7 44240e48 8b942448  |$..t&..D$.H..$H
 11b0 01000064 482b1425 28000000 755c4881  ...dH+.%(...u\H.
 11c0 c4580100 005b5d41 5c415dc3 488d3d31  .X...[]A\A].H.=1
 11d0 0e00004c 8d642440 e863feff ff488d35  ...L.d$@.c...H.5
 11e0 2d0e0000 488d3d28 0e0000e8 c0feffff  -...H.=(........
 11f0 be000100 004c89e7 4889c548 89c2e86d  .....L..H..H...m
 1200 feffff48 89efe845 feffff4c 89e7e82d  ...H...E...L...-
 1210 feffffeb 9183c8ff eb91e841 feffff90  ...........A....
 1220 f30f1efa 31ed4989 d15e4889 e24883e4  ....1.I..^H..H..
 1230 f050544c 8d052604 0000488d 0daf0300  .PTL..&...H.....
 1240 00488d3d 88feffff ff15922d 0000f490  .H.=.......-....
 1250 488d3d21 2e000048 8d051a2e 00004839  H.=!...H......H9
 1260 f8741548 8b056e2d 00004885 c07409ff  .t.H..n-..H..t..
 1270 e00f1f80 00000000 c30f1f80 00000000  ................
 1280 488d3df1 2d000048 8d35ea2d 00004829  H.=.-..H.5.-..H)
 1290 fe4889f0 48c1ee3f 48c1f803 4801c648  .H..H..?H...H..H
 12a0 d1fe7414 488b0545 2d000048 85c07408  ..t.H..E-..H..t.
 12b0 ffe0660f 1f440000 c30f1f80 00000000  ..f..D..........
 12c0 f30f1efa 803dcd2d 00000075 33554883  .....=.-...u3UH.
 12d0 3d222d00 00004889 e5740d48 8b3d8e2d  ="-...H..t.H.=.-
 12e0 0000ff15 102d0000 e863ffff ffc605a4  .....-...c......
 12f0 2d000001 5dc3662e 0f1f8400 00000000  -...].f.........
 1300 c366662e 0f1f8400 00000000 0f1f4000  .ff...........@.
 1310 f30f1efa e967ffff ff0f1f80 00000000  .....g..........
 1320 4883ec08 488b3d65 2d0000e8 90fdffff  H...H.=e-.......
 1330 4883c408 c366662e 0f1f8400 00000000  H....ff.........
 1340 488b3539 2d000040 0fb6ffe9 30fdffff  H.59-..@....0...
 1350 534889fb 488b3f0f b743088d 48014889  SH..H.?..C..H.H.
 1360 c266894b 080fb604 073c3477 13488d15  .f.K.....<4w.H..
 1370 a80c0000 48630482 4801d0ff e00f1f00  ....Hc..H.......
 1380 3cc00f84 38020000 761e3cc1 7552488b  <...8...v.<.uRH.
 1390 4310488d 50fe0fb6 78fe4889 5310ff53  C.H.P...x.H.S..S
 13a0 28b80100 00005bc3 3c800f84 30020000  (.....[.<...0...
 13b0 3c81752c 0fb7c983 c2030fb7 0c0f488b  <.u,..........H.
 13c0 43106689 5308488d 50024889 53106689  C.f.S.H.P.H.S.f.
 13d0 08b80100 00005bc3 0f1f8400 00000000  ......[.........
 13e0 31c04885 f674bfc6 06015bc3 0f1f4000  1.H..t....[...@.
 13f0 488b4310 488d50fc 668378fc 000fb748  H.C.H.P.f.x....H
 1400 fe488953 100f8840 010000b8 01000000  .H.S...@........
 1410 5bc3660f 1f440000 48836b10 02b80100  [.f..D..H.k.....
 1420 00005bc3 0f1f4000 31c04885 f60f8473  ..[...@.1.H....s
 1430 ffffff48 8b5310c6 0600488d 4afe0fb7  ...H.S....H.J...
 1440 52fe4889 4b105b66 895602c3 0f1f4000  R.H.K.[f.V....@.
 1450 488b4310 0fb750fc 488d48fe 662b50fe  H.C...P.H.H.f+P.
 1460 48894b10 668950fc b8010000 005bc390  H.K.f.P......[..
 1470 488b4310 0fb750fc 0fb748fe 668948fc  H.C...P...H.f.H.
 1480 48894310 668950fe b8010000 005bc390  H.C.f.P......[..
 1490 488b4310 488d50fe 48895310 0fb750fe  H.C.H.P.H.S...P.
 14a0 488b4318 488d4802 48894b18 668910b8  H.C.H.H.H.K.f...
 14b0 01000000 5bc3662e 0f1f8400 00000000  ....[.f.........
 14c0 488b4310 0fb750fe 488d4802 48894b10  H.C...P.H.H.H.K.
 14d0 668910b8 01000000 5bc3660f 1f440000  f.......[.f..D..
 14e0 488b4318 488d50fe 48895318 0fb750fe  H.C.H.P.H.S...P.
 14f0 488b4310 488d4802 48894b10 668910b8  H.C.H.H.H.K.f...
 1500 01000000 5bc3662e 0f1f8400 00000000  ....[.f.........
 1510 488b4310 488d50fe 0fb740fe 48895310  H.C.H.P...@.H.S.
 1520 66894308 b8010000 005bc30f 1f440000  f.C......[...D..
 1530 488b4310 488d50fc 668378fc 000fb748  H.C.H.P.f.x....H
 1540 fe488953 100f85c0 feffff66 894b08b8  .H.S.......f.K..
 1550 01000000 5bc3662e 0f1f8400 00000000  ....[.f.........
 1560 488b4310 488d50fc 668378fc 000fb748  H.C.H.P.f.x....H
 1570 fe488953 100f8490 feffffeb ce0f1f00  .H.S............
 1580 488b4310 488d50fc 668378fc 000fb748  H.C.H.P.f.x....H
 1590 fe488953 100f8f70 feffffeb ae0f1f00  .H.S...p........
 15a0 488b4310 0fb750fe 488d48fe 660350fc  H.C...P.H.H.f.P.
 15b0 48894b10 668950fc b8010000 005bc390  H.K.f.P......[..
 15c0 31c0ff53 20488b53 100fb6c0 488d4a02  1..S H.S....H.J.
 15d0 48894b10 668902b8 01000000 5bc36690  H.K.f.......[.f.
 15e0 0fb7c983 c202660f be0c0fe9 cefdffff  ......f.........
 15f0 f30f1efa 41574c8d 3deb2700 00415649  ....AWL.=.'..AVI
 1600 89d64155 4989f541 544189fc 55488d2d  ..AUI..ATA..UH.-
 1610 dc270000 534c29fd 4883ec08 e8dff9ff  .'..SL).H.......
 1620 ff48c1fd 03741f31 db0f1f80 00000000  .H...t.1........
 1630 4c89f24c 89ee4489 e741ff14 df4883c3  L..L..D..A...H..
 1640 014839dd 75ea4883 c4085b5d 415c415d  .H9.u.H...[]A\A]
 1650 415e415f c366662e 0f1f8400 00000000  A^A_.ff.........
 1660 f30f1efa c3                          .....           
Contents of section .fini:
 1668 f30f1efa 4883ec08 4883c408 c3        ....H...H....   
Contents of section .rodata:
 2000 01000200 48617665 20612066 6c616721  ....Have a flag!
 2010 00720066 6c61672e 74787400 eff3ffff  .r.flag.txt.....
 2020 0cf4ffff c4f3ffff c4f3ffff c4f3ffff  ................
 2030 c4f3ffff c4f3ffff c4f3ffff c4f3ffff  ................
 2040 c4f3ffff c4f3ffff c4f3ffff c4f3ffff  ................
 2050 c4f3ffff c4f3ffff c4f3ffff a4f4ffff  ................
 2060 fcf3ffff 84f5ffff 34f4ffff 54f4ffff  ........4...T...
 2070 c4f3ffff c4f3ffff c4f3ffff c4f3ffff  ................
 2080 c4f3ffff c4f3ffff c4f3ffff c4f3ffff  ................
 2090 c4f3ffff c4f3ffff c4f3ffff 74f4ffff  ............t...
 20a0 c4f4ffff c4f3ffff c4f3ffff c4f3ffff  ................
 20b0 c4f3ffff c4f3ffff c4f3ffff c4f3ffff  ................
 20c0 c4f3ffff c4f3ffff c4f3ffff c4f3ffff  ................
 20d0 c4f3ffff c4f3ffff c4f3ffff f4f4ffff  ................
 20e0 14f5ffff 44f5ffff d4f3ffff 64f5ffff  ....D.......d...
 20f0 81750080 00800a80 3f806580 76806980  .u......?.e.v.i.
 2100 6c806180 20807480 75806f80 20807480  l.a. .t.u.o. .t.
 2110 69802080 65806b80 61806d80 20807580  i. .e.k.a.m. .u.
 2120 6f807980 20806e80 61804380 0a805880  o.y. .n.a.C...X.
 2130 20804980 20805280 20805480 20804180   .I. .R. .T. .A.
 2140 20804d80 20806580 68807480 20806f80   .M. .e.h.t. .o.
 2150 74802080 65806d80 6f806380 6c806580  t. .e.m.o.c.l.e.
 2160 57813b01 30800180 018000c0 10807513  W.;.0.........u.
 2170 81a00031 10806413 81aa0031 10806c13  ...1..d....1..l.
 2180 81b40031 10807213 81c00031 81fb0030  ...1..r....1...0
 2190 11208001 132181cc 00301120 80011221  . ...!...0. ...!
 21a0 81cc0030 11202080 01132121 81cc0030  ...0.  ...!!...0
 21b0 11202080 01122121 81cc0030 202081da  .  ...!!...0  ..
 21c0 00211020 80108147 01301410 20122114  .!. ...G.0.. .!.
 21d0 21142114 2081ef00 21800281 61013081  !.!. ...!...a.0.
 21e0 7b001481 74011230 80000181 38018000  {...t..0....8...
 21f0 800a802e 80658075 80728067 80208061  .....e.u.r.g. .a
 2200 80208079 80628020 806e8065 80748061  . .y.b. .n.e.t.a
 2210 80658020 80658072 80658077 80208075  .e. .e.r.e.w. .u
 2220 806f8059 813b0130 80010110 81450131  .o.Y.;.0.....E.1
 2230 c1813b01 30113080 00202010 815b0131  ..;.0.0..  ..[.1
 2240 80011321 10211281 49013011 21112114  ...!.!..I.0.!.!.
 2250 30108171 01318001 13201012 21816101  0..q.1... ..!.a.
 2260 30111430 81fb0030 81fb0030 81fb0030  0..0...0...0...0
 2270 81fb0030 81fb0030 81fb0030 81fb0030  ...0...0...0...0
 2280 81fb0030 81fb0030 81fb0030 81fb0030  ...0...0...0...0
 2290 81fb0030 81fb0030 81fb0030 81fb0030  ...0...0...0...0
 22a0 81fb0030 81fb0030 30000000 30000000  ...0...00...0...
 22b0 30000000 30000000 30000000 817f0530  0...0...0......0
 22c0 81fb0030 30000000 81fb0030 817f0530  ...00......0...0
 22d0 30000000 30000000 81fb0030 30000000  0...0......00...
 22e0 81fb0030 81fb0030 81fb0030 81fb0030  ...0...0...0...0
 22f0 81fb0030 81740530 81fb0030 81fb0030  ...0.t.0...0...0
 2300 81fb0030 30000000 81fb0030 81fb0030  ...00......0...0
 2310 81fb0030 30000000 81fb0030 30000000  ...00......00...
 2320 81fb0030 81fb0030 30000000 30000000  ...0...00...0...
 2330 30000000 30000000 30000000 30000000  0...0...0...0...
 2340 30000000 30000000 30000000 30000000  0...0...0...0...
 2350 81fb0030 30000000 81fb0030 30000000  ...00......00...
 2360 81fb0030 81fb0030 81fb0030 30000000  ...0...0...00...
 2370 81fb0030 30000000 81fb0030 81fb0030  ...00......0...0
 2380 81fb0030 81fb0030 81fb0030 30000000  ...0...0...00...
 2390 81fb0030 30000000 81740530 30000000  ...00....t.00...
 23a0 81fb0030 81fb0030 30000000 30000000  ...0...00...0...
 23b0 81fb0030 30000000 81fb0030 817f0530  ...00......0...0
 23c0 30000000 30000000 81fb0030 30000000  0...0......00...
 23d0 81fb0030 30000000 81fb0030 30000000  ...00......00...
 23e0 81fb0030 81fb0030 30000000 81fb0030  ...0...00......0
 23f0 81fb0030 30000000 81fb0030 81fb0030  ...00......0...0
 2400 81fb0030 30000000 81fb0030 30000000  ...00......00...
 2410 81fb0030 30000000 81fb0030 30000000  ...00......00...
 2420 81fb0030 81fb0030 30000000 81fb0030  ...0...00......0
 2430 30000000 30000000 30000000 30000000  0...0...0...0...
 2440 30000000 30000000 81fb0030 30000000  0...0......00...
 2450 81fb0030 30000000 81fb0030 30000000  ...00......00...
 2460 81fb0030 81fb0030 30000000 81fb0030  ...0...00......0
 2470 30000000 81fb0030 81fb0030 81fb0030  0......0...0...0
 2480 81fb0030 81fb0030 81fb0030 30000000  ...0...0...00...
 2490 81fb0030 30000000 81fb0030 30000000  ...00......00...
 24a0 81fb0030 81fb0030 30000000 81fb0030  ...0...00......0
 24b0 30000000 30000000 30000000 30000000  0...0...0...0...
 24c0 30000000 30000000 30000000 30000000  0...0...0...0...
 24d0 81fb0030 30000000 81fb0030 30000000  ...00......00...
 24e0 81fb0030 81fb0030 30000000 81fb0030  ...0...00......0
 24f0 81fb0030 81fb0030 30000000 81fb0030  ...0...00......0
 2500 81fb0030 81fb0030 81fb0030 81fb0030  ...0...0...0...0
 2510 81fb0030 30000000 81fb0030 30000000  ...00......00...
 2520 81fb0030 81fb0030 30000000 30000000  ...0...00...0...
 2530 30000000 81fb0030 30000000 30000000  0......00...0...
 2540 81740530 30000000 30000000 81fb0030  .t.00...0......0
 2550 30000000 30000000 81fb0030 30000000  0...0......00...
 2560 81fb0030 81fb0030 30000000 81fb0030  ...0...00......0
 2570 81fb0030 81fb0030 30000000 30000000  ...0...00...0...
 2580 81fb0030 30000000 30000000 81fb0030  ...00...0......0
 2590 30000000 81fb0030 30000000 30000000  0......00...0...
 25a0 81fb0030 81fb0030 30000000 81fb0030  ...0...00......0
 25b0 30000000 30000000 30000000 81fb0030  0...0...0......0
 25c0 81fb0030 81fb0030 30000000 81fb0030  ...0...00......0
 25d0 30000000 81fb0030 81740530 81fb0030  0......0.t.0...0
 25e0 81fb0030 81fb0030 30000000 81fb0030  ...0...00......0
 25f0 30000000 30000000 30000000 30000000  0...0...0...0...
 2600 81fb0030 30000000 30000000 81740530  ...00...0....t.0
 2610 30000000 81fb0030 30000000 30000000  0......00...0...
 2620 81fb0030 81fb0030 81fb0030 81fb0030  ...0...0...0...0
 2630 81fb0030 81fb0030 81fb0030 81fb0030  ...0...0...0...0
 2640 81fb0030 81fb0030 81fb0030 81fb0030  ...0...0...0...0
 2650 81fb0030 81fb0030 81fb0030 81850530  ...0...0...0...0
 2660 81fb0030 201081fb 00318001 13213020  ...0 ....1...!0 
 2670 80011221 30111111 1181ce05 8000800a  ...!0...........
 2680 80218074 80698020 80658064 8061806d  .!.t.i. .e.d.a.m
 2690 80208075 806f8079 8020802c 8073806e  . .u.o.y. .,.s.n
 26a0 806f8069 80748061 806c8075 80748061  .o.i.t.a.l.u.t.a
 26b0 80728067 806e806f 8043813b 013081f8  .r.g.n.o.C.;.0..
 26c0 0030                                 .0              
Contents of section .eh_frame_hdr:
 26c4 011b033b 48000000 08000000 5ce9ffff  ...;H.......\...
 26d4 7c000000 0ceaffff d0000000 5cebffff  |...........\...
 26e4 64000000 5cecffff a4000000 7cecffff  d...\.......|...
 26f4 bc000000 8cecffff 0c010000 2cefffff  ............,...
 2704 84010000 9cefffff cc010000           ............    
Contents of section .eh_frame:
 2710 14000000 00000000 017a5200 01781001  .........zR..x..
 2720 1b0c0708 90010000 14000000 1c000000  ................
 2730 f0eaffff 2f000000 00440710 00000000  ..../....D......
 2740 24000000 34000000 d8e8ffff b0000000  $...4...........
 2750 000e1046 0e184a0f 0b770880 003f1a3b  ...F..J..w...?.;
 2760 2a332422 00000000 14000000 5c000000  *3$"........\...
 2770 b0ebffff 15000000 00440e10 500e0800  .........D..P...
 2780 10000000 74000000 b8ebffff 10000000  ....t...........
 2790 00000000 38000000 88000000 34e9ffff  ....8.......4...
 27a0 4f010000 00420e10 8d024e0e 188c0341  O....B....N....A
 27b0 0e208604 410e2883 05470e80 0302dc0a  . ..A.(..G......
 27c0 0e28410e 20410e18 420e1042 0e08410b  .(A. A..B..B..A.
 27d0 74000000 c4000000 78ebffff a0020000  t.......x.......
 27e0 00410e10 83020256 0a0e0841 0b6f0a0e  .A.....V...A.o..
 27f0 08490b4b 0a0e0845 0b610a0e 08470b4b  .I.K...E.a...G.K
 2800 0a0e0845 0b5f0a0e 08490b5e 0a0e0842  ...E._...I.^...B
 2810 0b5e0a0e 08420b65 0a0e084b 0b590a0e  .^...B.e...K.Y..
 2820 08470b65 0a0e084b 0b5a0a0e 08460b65  .G.e...K.Z...F.e
 2830 0a0e084b 0b025e0a 0e08420b 5d0a0e08  ...K..^...B.]...
 2840 430b0000 00000000 44000000 3c010000  C.......D...<...
 2850 a0edffff 65000000 00460e10 8f02490e  ....e....F....I.
 2860 188e0345 0e208d04 450e288c 05440e30  ...E. ..E.(..D.0
 2870 8606480e 38830747 0e406e0e 38410e30  ..H.8..G.@n.8A.0
 2880 410e2842 0e20420e 18420e10 420e0800  A.(B. B..B..B...
 2890 10000000 84010000 c8edffff 05000000  ................
 28a0 00000000 00000000                    ........        
Contents of section .init_array:
 3de8 10130000 00000000                    ........        
Contents of section .fini_array:
 3df0 c0120000 00000000                    ........        
Contents of section .dynamic:
 3df8 01000000 00000000 76000000 00000000  ........v.......
 3e08 0c000000 00000000 00100000 00000000  ................
 3e18 0d000000 00000000 68160000 00000000  ........h.......
 3e28 19000000 00000000 e83d0000 00000000  .........=......
 3e38 1b000000 00000000 08000000 00000000  ................
 3e48 1a000000 00000000 f03d0000 00000000  .........=......
 3e58 1c000000 00000000 08000000 00000000  ................
 3e68 f5feff6f 00000000 a0030000 00000000  ...o............
 3e78 05000000 00000000 78050000 00000000  ........x.......
 3e88 06000000 00000000 c8030000 00000000  ................
 3e98 0a000000 00000000 db000000 00000000  ................
 3ea8 0b000000 00000000 18000000 00000000  ................
 3eb8 15000000 00000000 00000000 00000000  ................
 3ec8 03000000 00000000 00400000 00000000  .........@......
 3ed8 02000000 00000000 f0000000 00000000  ................
 3ee8 14000000 00000000 07000000 00000000  ................
 3ef8 17000000 00000000 98070000 00000000  ................
 3f08 07000000 00000000 a8060000 00000000  ................
 3f18 08000000 00000000 f0000000 00000000  ................
 3f28 09000000 00000000 18000000 00000000  ................
 3f38 fbffff6f 00000000 00000008 00000000  ...o............
 3f48 feffff6f 00000000 78060000 00000000  ...o....x.......
 3f58 ffffff6f 00000000 01000000 00000000  ...o............
 3f68 f0ffff6f 00000000 54060000 00000000  ...o....T.......
 3f78 f9ffff6f 00000000 03000000 00000000  ...o............
 3f88 00000000 00000000 00000000 00000000  ................
 3f98 00000000 00000000 00000000 00000000  ................
 3fa8 00000000 00000000 00000000 00000000  ................
 3fb8 00000000 00000000 00000000 00000000  ................
 3fc8 00000000 00000000 00000000 00000000  ................
Contents of section .got:
 3fd8 00000000 00000000 00000000 00000000  ................
 3fe8 00000000 00000000 00000000 00000000  ................
 3ff8 00000000 00000000                    ........        
Contents of section .got.plt:
 4000 f83d0000 00000000 00000000 00000000  .=..............
 4010 00000000 00000000 36100000 00000000  ........6.......
 4020 46100000 00000000 56100000 00000000  F.......V.......
 4030 66100000 00000000 76100000 00000000  f.......v.......
 4040 86100000 00000000 96100000 00000000  ................
 4050 a6100000 00000000 b6100000 00000000  ................
 4060 c6100000 00000000                    ........        
Contents of section .data:
 4068 00000000 00000000 70400000 00000000  ........p@......
Contents of section .comment:
 0000 4743433a 2028474e 55292031 302e322e  GCC: (GNU) 10.2.
 0010 3000                                 0.              

Disassembly of section .init:

0000000000001000 <.init>:
    1000:	f3 0f 1e fa          	endbr64 
    1004:	48 83 ec 08          	sub    $0x8,%rsp
    1008:	48 8b 05 d9 2f 00 00 	mov    0x2fd9(%rip),%rax        # 3fe8 <getc@plt+0x2f28>
    100f:	48 85 c0             	test   %rax,%rax
    1012:	74 02                	je     1016 <free@plt-0x1a>
    1014:	ff d0                	call   *%rax
    1016:	48 83 c4 08          	add    $0x8,%rsp
    101a:	c3                   	ret    

Disassembly of section .plt:

0000000000001020 <free@plt-0x10>:
    1020:	ff 35 e2 2f 00 00    	push   0x2fe2(%rip)        # 4008 <getc@plt+0x2f48>
    1026:	ff 25 e4 2f 00 00    	jmp    *0x2fe4(%rip)        # 4010 <getc@plt+0x2f50>
    102c:	0f 1f 40 00          	nopl   0x0(%rax)

0000000000001030 <free@plt>:
    1030:	ff 25 e2 2f 00 00    	jmp    *0x2fe2(%rip)        # 4018 <getc@plt+0x2f58>
    1036:	68 00 00 00 00       	push   $0x0
    103b:	e9 e0 ff ff ff       	jmp    1020 <free@plt-0x10>

0000000000001040 <puts@plt>:
    1040:	ff 25 da 2f 00 00    	jmp    *0x2fda(%rip)        # 4020 <getc@plt+0x2f60>
    1046:	68 01 00 00 00       	push   $0x1
    104b:	e9 d0 ff ff ff       	jmp    1020 <free@plt-0x10>

0000000000001050 <fclose@plt>:
    1050:	ff 25 d2 2f 00 00    	jmp    *0x2fd2(%rip)        # 4028 <getc@plt+0x2f68>
    1056:	68 02 00 00 00       	push   $0x2
    105b:	e9 c0 ff ff ff       	jmp    1020 <free@plt-0x10>

0000000000001060 <__stack_chk_fail@plt>:
    1060:	ff 25 ca 2f 00 00    	jmp    *0x2fca(%rip)        # 4030 <getc@plt+0x2f70>
    1066:	68 03 00 00 00       	push   $0x3
    106b:	e9 b0 ff ff ff       	jmp    1020 <free@plt-0x10>

0000000000001070 <fgets@plt>:
    1070:	ff 25 c2 2f 00 00    	jmp    *0x2fc2(%rip)        # 4038 <getc@plt+0x2f78>
    1076:	68 04 00 00 00       	push   $0x4
    107b:	e9 a0 ff ff ff       	jmp    1020 <free@plt-0x10>

0000000000001080 <putc@plt>:
    1080:	ff 25 ba 2f 00 00    	jmp    *0x2fba(%rip)        # 4040 <getc@plt+0x2f80>
    1086:	68 05 00 00 00       	push   $0x5
    108b:	e9 90 ff ff ff       	jmp    1020 <free@plt-0x10>

0000000000001090 <malloc@plt>:
    1090:	ff 25 b2 2f 00 00    	jmp    *0x2fb2(%rip)        # 4048 <getc@plt+0x2f88>
    1096:	68 06 00 00 00       	push   $0x6
    109b:	e9 80 ff ff ff       	jmp    1020 <free@plt-0x10>

00000000000010a0 <setvbuf@plt>:
    10a0:	ff 25 aa 2f 00 00    	jmp    *0x2faa(%rip)        # 4050 <getc@plt+0x2f90>
    10a6:	68 07 00 00 00       	push   $0x7
    10ab:	e9 70 ff ff ff       	jmp    1020 <free@plt-0x10>

00000000000010b0 <fopen@plt>:
    10b0:	ff 25 a2 2f 00 00    	jmp    *0x2fa2(%rip)        # 4058 <getc@plt+0x2f98>
    10b6:	68 08 00 00 00       	push   $0x8
    10bb:	e9 60 ff ff ff       	jmp    1020 <free@plt-0x10>

00000000000010c0 <getc@plt>:
    10c0:	ff 25 9a 2f 00 00    	jmp    *0x2f9a(%rip)        # 4060 <getc@plt+0x2fa0>
    10c6:	68 09 00 00 00       	push   $0x9
    10cb:	e9 50 ff ff ff       	jmp    1020 <free@plt-0x10>

Disassembly of section .text:

00000000000010d0 <.text>:
    10d0:	41 55                	push   %r13
    10d2:	b9 00 20 00 00       	mov    $0x2000,%ecx
    10d7:	ba 01 00 00 00       	mov    $0x1,%edx
    10dc:	31 f6                	xor    %esi,%esi
    10de:	41 54                	push   %r12
    10e0:	55                   	push   %rbp
    10e1:	53                   	push   %rbx
    10e2:	48 81 ec 58 01 00 00 	sub    $0x158,%rsp
    10e9:	48 8b 3d 90 2f 00 00 	mov    0x2f90(%rip),%rdi        # 4080 <stdout@GLIBC_2.2.5>
    10f0:	64 48 8b 04 25 28 00 	mov    %fs:0x28,%rax
    10f7:	00 00 
    10f9:	48 89 84 24 48 01 00 	mov    %rax,0x148(%rsp)
    1100:	00 
    1101:	31 c0                	xor    %eax,%eax
    1103:	48 8d 6c 24 0c       	lea    0xc(%rsp),%rbp
    1108:	48 8d 5c 24 10       	lea    0x10(%rsp),%rbx
    110d:	e8 8e ff ff ff       	call   10a0 <setvbuf@plt>
    1112:	bf 00 08 00 00       	mov    $0x800,%edi
    1117:	e8 74 ff ff ff       	call   1090 <malloc@plt>
    111c:	bf 00 08 00 00       	mov    $0x800,%edi
    1121:	49 89 c5             	mov    %rax,%r13
    1124:	e8 67 ff ff ff       	call   1090 <malloc@plt>
    1129:	66 49 0f 6e c5       	movq   %r13,%xmm0
    112e:	48 8d 0d eb 01 00 00 	lea    0x1eb(%rip),%rcx        # 1320 <getc@plt+0x260>
    1135:	49 89 c4             	mov    %rax,%r12
    1138:	48 8d 05 b1 0f 00 00 	lea    0xfb1(%rip),%rax        # 20f0 <getc@plt+0x1030>
    113f:	48 89 44 24 10       	mov    %rax,0x10(%rsp)
    1144:	66 49 0f 6e cc       	movq   %r12,%xmm1
    1149:	31 c0                	xor    %eax,%eax
    114b:	66 0f 6c c1          	punpcklqdq %xmm1,%xmm0
    114f:	66 89 44 24 18       	mov    %ax,0x18(%rsp)
    1154:	48 8d 05 e5 01 00 00 	lea    0x1e5(%rip),%rax        # 1340 <getc@plt+0x280>
    115b:	0f 29 44 24 20       	movaps %xmm0,0x20(%rsp)
    1160:	66 48 0f 6e d0       	movq   %rax,%xmm2
    1165:	66 48 0f 6e c1       	movq   %rcx,%xmm0
    116a:	66 0f 6c c2          	punpcklqdq %xmm2,%xmm0
    116e:	0f 29 44 24 30       	movaps %xmm0,0x30(%rsp)
    1173:	0f 1f 44 00 00       	nopl   0x0(%rax,%rax,1)
    1178:	48 89 ee             	mov    %rbp,%rsi
    117b:	48 89 df             	mov    %rbx,%rdi
    117e:	e8 cd 01 00 00       	call   1350 <getc@plt+0x290>
    1183:	84 c0                	test   %al,%al
    1185:	75 f1                	jne    1178 <getc@plt+0xb8>
    1187:	4c 89 ef             	mov    %r13,%rdi
    118a:	e8 a1 fe ff ff       	call   1030 <free@plt>
    118f:	4c 89 e7             	mov    %r12,%rdi
    1192:	e8 99 fe ff ff       	call   1030 <free@plt>
    1197:	80 7c 24 0c 00       	cmpb   $0x0,0xc(%rsp)
    119c:	75 77                	jne    1215 <getc@plt+0x155>
    119e:	66 83 7c 24 0e 00    	cmpw   $0x0,0xe(%rsp)
    11a4:	74 26                	je     11cc <getc@plt+0x10c>
    11a6:	0f b7 44 24 0e       	movzwl 0xe(%rsp),%eax
    11ab:	48 8b 94 24 48 01 00 	mov    0x148(%rsp),%rdx
    11b2:	00 
    11b3:	64 48 2b 14 25 28 00 	sub    %fs:0x28,%rdx
    11ba:	00 00 
    11bc:	75 5c                	jne    121a <getc@plt+0x15a>
    11be:	48 81 c4 58 01 00 00 	add    $0x158,%rsp
    11c5:	5b                   	pop    %rbx
    11c6:	5d                   	pop    %rbp
    11c7:	41 5c                	pop    %r12
    11c9:	41 5d                	pop    %r13
    11cb:	c3                   	ret    
    11cc:	48 8d 3d 31 0e 00 00 	lea    0xe31(%rip),%rdi        # 2004 <getc@plt+0xf44>
    11d3:	4c 8d 64 24 40       	lea    0x40(%rsp),%r12
    11d8:	e8 63 fe ff ff       	call   1040 <puts@plt>
    11dd:	48 8d 35 2d 0e 00 00 	lea    0xe2d(%rip),%rsi        # 2011 <getc@plt+0xf51>
    11e4:	48 8d 3d 28 0e 00 00 	lea    0xe28(%rip),%rdi        # 2013 <getc@plt+0xf53>
    11eb:	e8 c0 fe ff ff       	call   10b0 <fopen@plt>
    11f0:	be 00 01 00 00       	mov    $0x100,%esi
    11f5:	4c 89 e7             	mov    %r12,%rdi
    11f8:	48 89 c5             	mov    %rax,%rbp
    11fb:	48 89 c2             	mov    %rax,%rdx
    11fe:	e8 6d fe ff ff       	call   1070 <fgets@plt>
    1203:	48 89 ef             	mov    %rbp,%rdi
    1206:	e8 45 fe ff ff       	call   1050 <fclose@plt>
    120b:	4c 89 e7             	mov    %r12,%rdi
    120e:	e8 2d fe ff ff       	call   1040 <puts@plt>
    1213:	eb 91                	jmp    11a6 <getc@plt+0xe6>
    1215:	83 c8 ff             	or     $0xffffffff,%eax
    1218:	eb 91                	jmp    11ab <getc@plt+0xeb>
    121a:	e8 41 fe ff ff       	call   1060 <__stack_chk_fail@plt>
    121f:	90                   	nop
    1220:	f3 0f 1e fa          	endbr64 
    1224:	31 ed                	xor    %ebp,%ebp
    1226:	49 89 d1             	mov    %rdx,%r9
    1229:	5e                   	pop    %rsi
    122a:	48 89 e2             	mov    %rsp,%rdx
    122d:	48 83 e4 f0          	and    $0xfffffffffffffff0,%rsp
    1231:	50                   	push   %rax
    1232:	54                   	push   %rsp
    1233:	4c 8d 05 26 04 00 00 	lea    0x426(%rip),%r8        # 1660 <getc@plt+0x5a0>
    123a:	48 8d 0d af 03 00 00 	lea    0x3af(%rip),%rcx        # 15f0 <getc@plt+0x530>
    1241:	48 8d 3d 88 fe ff ff 	lea    -0x178(%rip),%rdi        # 10d0 <getc@plt+0x10>
    1248:	ff 15 92 2d 00 00    	call   *0x2d92(%rip)        # 3fe0 <getc@plt+0x2f20>
    124e:	f4                   	hlt    
    124f:	90                   	nop
    1250:	48 8d 3d 21 2e 00 00 	lea    0x2e21(%rip),%rdi        # 4078 <getc@plt+0x2fb8>
    1257:	48 8d 05 1a 2e 00 00 	lea    0x2e1a(%rip),%rax        # 4078 <getc@plt+0x2fb8>
    125e:	48 39 f8             	cmp    %rdi,%rax
    1261:	74 15                	je     1278 <getc@plt+0x1b8>
    1263:	48 8b 05 6e 2d 00 00 	mov    0x2d6e(%rip),%rax        # 3fd8 <getc@plt+0x2f18>
    126a:	48 85 c0             	test   %rax,%rax
    126d:	74 09                	je     1278 <getc@plt+0x1b8>
    126f:	ff e0                	jmp    *%rax
    1271:	0f 1f 80 00 00 00 00 	nopl   0x0(%rax)
    1278:	c3                   	ret    
    1279:	0f 1f 80 00 00 00 00 	nopl   0x0(%rax)
    1280:	48 8d 3d f1 2d 00 00 	lea    0x2df1(%rip),%rdi        # 4078 <getc@plt+0x2fb8>
    1287:	48 8d 35 ea 2d 00 00 	lea    0x2dea(%rip),%rsi        # 4078 <getc@plt+0x2fb8>
    128e:	48 29 fe             	sub    %rdi,%rsi
    1291:	48 89 f0             	mov    %rsi,%rax
    1294:	48 c1 ee 3f          	shr    $0x3f,%rsi
    1298:	48 c1 f8 03          	sar    $0x3,%rax
    129c:	48 01 c6             	add    %rax,%rsi
    129f:	48 d1 fe             	sar    %rsi
    12a2:	74 14                	je     12b8 <getc@plt+0x1f8>
    12a4:	48 8b 05 45 2d 00 00 	mov    0x2d45(%rip),%rax        # 3ff0 <getc@plt+0x2f30>
    12ab:	48 85 c0             	test   %rax,%rax
    12ae:	74 08                	je     12b8 <getc@plt+0x1f8>
    12b0:	ff e0                	jmp    *%rax
    12b2:	66 0f 1f 44 00 00    	nopw   0x0(%rax,%rax,1)
    12b8:	c3                   	ret    
    12b9:	0f 1f 80 00 00 00 00 	nopl   0x0(%rax)
    12c0:	f3 0f 1e fa          	endbr64 
    12c4:	80 3d cd 2d 00 00 00 	cmpb   $0x0,0x2dcd(%rip)        # 4098 <stdin@GLIBC_2.2.5+0x8>
    12cb:	75 33                	jne    1300 <getc@plt+0x240>
    12cd:	55                   	push   %rbp
    12ce:	48 83 3d 22 2d 00 00 	cmpq   $0x0,0x2d22(%rip)        # 3ff8 <getc@plt+0x2f38>
    12d5:	00 
    12d6:	48 89 e5             	mov    %rsp,%rbp
    12d9:	74 0d                	je     12e8 <getc@plt+0x228>
    12db:	48 8b 3d 8e 2d 00 00 	mov    0x2d8e(%rip),%rdi        # 4070 <getc@plt+0x2fb0>
    12e2:	ff 15 10 2d 00 00    	call   *0x2d10(%rip)        # 3ff8 <getc@plt+0x2f38>
    12e8:	e8 63 ff ff ff       	call   1250 <getc@plt+0x190>
    12ed:	c6 05 a4 2d 00 00 01 	movb   $0x1,0x2da4(%rip)        # 4098 <stdin@GLIBC_2.2.5+0x8>
    12f4:	5d                   	pop    %rbp
    12f5:	c3                   	ret    
    12f6:	66 2e 0f 1f 84 00 00 	cs nopw 0x0(%rax,%rax,1)
    12fd:	00 00 00 
    1300:	c3                   	ret    
    1301:	66 66 2e 0f 1f 84 00 	data16 cs nopw 0x0(%rax,%rax,1)
    1308:	00 00 00 00 
    130c:	0f 1f 40 00          	nopl   0x0(%rax)
    1310:	f3 0f 1e fa          	endbr64 
    1314:	e9 67 ff ff ff       	jmp    1280 <getc@plt+0x1c0>
    1319:	0f 1f 80 00 00 00 00 	nopl   0x0(%rax)
    1320:	48 83 ec 08          	sub    $0x8,%rsp
    1324:	48 8b 3d 65 2d 00 00 	mov    0x2d65(%rip),%rdi        # 4090 <stdin@GLIBC_2.2.5>
    132b:	e8 90 fd ff ff       	call   10c0 <getc@plt>
    1330:	48 83 c4 08          	add    $0x8,%rsp
    1334:	c3                   	ret    
    1335:	66 66 2e 0f 1f 84 00 	data16 cs nopw 0x0(%rax,%rax,1)
    133c:	00 00 00 00 
    1340:	48 8b 35 39 2d 00 00 	mov    0x2d39(%rip),%rsi        # 4080 <stdout@GLIBC_2.2.5>
    1347:	40 0f b6 ff          	movzbl %dil,%edi
    134b:	e9 30 fd ff ff       	jmp    1080 <putc@plt>
    1350:	53                   	push   %rbx
    1351:	48 89 fb             	mov    %rdi,%rbx
    1354:	48 8b 3f             	mov    (%rdi),%rdi
    1357:	0f b7 43 08          	movzwl 0x8(%rbx),%eax
    135b:	8d 48 01             	lea    0x1(%rax),%ecx
    135e:	48 89 c2             	mov    %rax,%rdx
    1361:	66 89 4b 08          	mov    %cx,0x8(%rbx)
    1365:	0f b6 04 07          	movzbl (%rdi,%rax,1),%eax
    1369:	3c 34                	cmp    $0x34,%al
    136b:	77 13                	ja     1380 <getc@plt+0x2c0>
    136d:	48 8d 15 a8 0c 00 00 	lea    0xca8(%rip),%rdx        # 201c <getc@plt+0xf5c>
    1374:	48 63 04 82          	movslq (%rdx,%rax,4),%rax
    1378:	48 01 d0             	add    %rdx,%rax
    137b:	ff e0                	jmp    *%rax
    137d:	0f 1f 00             	nopl   (%rax)
    1380:	3c c0                	cmp    $0xc0,%al
    1382:	0f 84 38 02 00 00    	je     15c0 <getc@plt+0x500>
    1388:	76 1e                	jbe    13a8 <getc@plt+0x2e8>
    138a:	3c c1                	cmp    $0xc1,%al
    138c:	75 52                	jne    13e0 <getc@plt+0x320>
    138e:	48 8b 43 10          	mov    0x10(%rbx),%rax
    1392:	48 8d 50 fe          	lea    -0x2(%rax),%rdx
    1396:	0f b6 78 fe          	movzbl -0x2(%rax),%edi
    139a:	48 89 53 10          	mov    %rdx,0x10(%rbx)
    139e:	ff 53 28             	call   *0x28(%rbx)
    13a1:	b8 01 00 00 00       	mov    $0x1,%eax
    13a6:	5b                   	pop    %rbx
    13a7:	c3                   	ret    
    13a8:	3c 80                	cmp    $0x80,%al
    13aa:	0f 84 30 02 00 00    	je     15e0 <getc@plt+0x520>
    13b0:	3c 81                	cmp    $0x81,%al
    13b2:	75 2c                	jne    13e0 <getc@plt+0x320>
    13b4:	0f b7 c9             	movzwl %cx,%ecx
    13b7:	83 c2 03             	add    $0x3,%edx
    13ba:	0f b7 0c 0f          	movzwl (%rdi,%rcx,1),%ecx
    13be:	48 8b 43 10          	mov    0x10(%rbx),%rax
    13c2:	66 89 53 08          	mov    %dx,0x8(%rbx)
    13c6:	48 8d 50 02          	lea    0x2(%rax),%rdx
    13ca:	48 89 53 10          	mov    %rdx,0x10(%rbx)
    13ce:	66 89 08             	mov    %cx,(%rax)
    13d1:	b8 01 00 00 00       	mov    $0x1,%eax
    13d6:	5b                   	pop    %rbx
    13d7:	c3                   	ret    
    13d8:	0f 1f 84 00 00 00 00 	nopl   0x0(%rax,%rax,1)
    13df:	00 
    13e0:	31 c0                	xor    %eax,%eax
    13e2:	48 85 f6             	test   %rsi,%rsi
    13e5:	74 bf                	je     13a6 <getc@plt+0x2e6>
    13e7:	c6 06 01             	movb   $0x1,(%rsi)
    13ea:	5b                   	pop    %rbx
    13eb:	c3                   	ret    
    13ec:	0f 1f 40 00          	nopl   0x0(%rax)
    13f0:	48 8b 43 10          	mov    0x10(%rbx),%rax
    13f4:	48 8d 50 fc          	lea    -0x4(%rax),%rdx
    13f8:	66 83 78 fc 00       	cmpw   $0x0,-0x4(%rax)
    13fd:	0f b7 48 fe          	movzwl -0x2(%rax),%ecx
    1401:	48 89 53 10          	mov    %rdx,0x10(%rbx)
    1405:	0f 88 40 01 00 00    	js     154b <getc@plt+0x48b>
    140b:	b8 01 00 00 00       	mov    $0x1,%eax
    1410:	5b                   	pop    %rbx
    1411:	c3                   	ret    
    1412:	66 0f 1f 44 00 00    	nopw   0x0(%rax,%rax,1)
    1418:	48 83 6b 10 02       	subq   $0x2,0x10(%rbx)
    141d:	b8 01 00 00 00       	mov    $0x1,%eax
    1422:	5b                   	pop    %rbx
    1423:	c3                   	ret    
    1424:	0f 1f 40 00          	nopl   0x0(%rax)
    1428:	31 c0                	xor    %eax,%eax
    142a:	48 85 f6             	test   %rsi,%rsi
    142d:	0f 84 73 ff ff ff    	je     13a6 <getc@plt+0x2e6>
    1433:	48 8b 53 10          	mov    0x10(%rbx),%rdx
    1437:	c6 06 00             	movb   $0x0,(%rsi)
    143a:	48 8d 4a fe          	lea    -0x2(%rdx),%rcx
    143e:	0f b7 52 fe          	movzwl -0x2(%rdx),%edx
    1442:	48 89 4b 10          	mov    %rcx,0x10(%rbx)
    1446:	5b                   	pop    %rbx
    1447:	66 89 56 02          	mov    %dx,0x2(%rsi)
    144b:	c3                   	ret    
    144c:	0f 1f 40 00          	nopl   0x0(%rax)
    1450:	48 8b 43 10          	mov    0x10(%rbx),%rax
    1454:	0f b7 50 fc          	movzwl -0x4(%rax),%edx
    1458:	48 8d 48 fe          	lea    -0x2(%rax),%rcx
    145c:	66 2b 50 fe          	sub    -0x2(%rax),%dx
    1460:	48 89 4b 10          	mov    %rcx,0x10(%rbx)
    1464:	66 89 50 fc          	mov    %dx,-0x4(%rax)
    1468:	b8 01 00 00 00       	mov    $0x1,%eax
    146d:	5b                   	pop    %rbx
    146e:	c3                   	ret    
    146f:	90                   	nop
    1470:	48 8b 43 10          	mov    0x10(%rbx),%rax
    1474:	0f b7 50 fc          	movzwl -0x4(%rax),%edx
    1478:	0f b7 48 fe          	movzwl -0x2(%rax),%ecx
    147c:	66 89 48 fc          	mov    %cx,-0x4(%rax)
    1480:	48 89 43 10          	mov    %rax,0x10(%rbx)
    1484:	66 89 50 fe          	mov    %dx,-0x2(%rax)
    1488:	b8 01 00 00 00       	mov    $0x1,%eax
    148d:	5b                   	pop    %rbx
    148e:	c3                   	ret    
    148f:	90                   	nop
    1490:	48 8b 43 10          	mov    0x10(%rbx),%rax
    1494:	48 8d 50 fe          	lea    -0x2(%rax),%rdx
    1498:	48 89 53 10          	mov    %rdx,0x10(%rbx)
    149c:	0f b7 50 fe          	movzwl -0x2(%rax),%edx
    14a0:	48 8b 43 18          	mov    0x18(%rbx),%rax
    14a4:	48 8d 48 02          	lea    0x2(%rax),%rcx
    14a8:	48 89 4b 18          	mov    %rcx,0x18(%rbx)
    14ac:	66 89 10             	mov    %dx,(%rax)
    14af:	b8 01 00 00 00       	mov    $0x1,%eax
    14b4:	5b                   	pop    %rbx
    14b5:	c3                   	ret    
    14b6:	66 2e 0f 1f 84 00 00 	cs nopw 0x0(%rax,%rax,1)
    14bd:	00 00 00 
    14c0:	48 8b 43 10          	mov    0x10(%rbx),%rax
    14c4:	0f b7 50 fe          	movzwl -0x2(%rax),%edx
    14c8:	48 8d 48 02          	lea    0x2(%rax),%rcx
    14cc:	48 89 4b 10          	mov    %rcx,0x10(%rbx)
    14d0:	66 89 10             	mov    %dx,(%rax)
    14d3:	b8 01 00 00 00       	mov    $0x1,%eax
    14d8:	5b                   	pop    %rbx
    14d9:	c3                   	ret    
    14da:	66 0f 1f 44 00 00    	nopw   0x0(%rax,%rax,1)
    14e0:	48 8b 43 18          	mov    0x18(%rbx),%rax
    14e4:	48 8d 50 fe          	lea    -0x2(%rax),%rdx
    14e8:	48 89 53 18          	mov    %rdx,0x18(%rbx)
    14ec:	0f b7 50 fe          	movzwl -0x2(%rax),%edx
    14f0:	48 8b 43 10          	mov    0x10(%rbx),%rax
    14f4:	48 8d 48 02          	lea    0x2(%rax),%rcx
    14f8:	48 89 4b 10          	mov    %rcx,0x10(%rbx)
    14fc:	66 89 10             	mov    %dx,(%rax)
    14ff:	b8 01 00 00 00       	mov    $0x1,%eax
    1504:	5b                   	pop    %rbx
    1505:	c3                   	ret    
    1506:	66 2e 0f 1f 84 00 00 	cs nopw 0x0(%rax,%rax,1)
    150d:	00 00 00 
    1510:	48 8b 43 10          	mov    0x10(%rbx),%rax
    1514:	48 8d 50 fe          	lea    -0x2(%rax),%rdx
    1518:	0f b7 40 fe          	movzwl -0x2(%rax),%eax
    151c:	48 89 53 10          	mov    %rdx,0x10(%rbx)
    1520:	66 89 43 08          	mov    %ax,0x8(%rbx)
    1524:	b8 01 00 00 00       	mov    $0x1,%eax
    1529:	5b                   	pop    %rbx
    152a:	c3                   	ret    
    152b:	0f 1f 44 00 00       	nopl   0x0(%rax,%rax,1)
    1530:	48 8b 43 10          	mov    0x10(%rbx),%rax
    1534:	48 8d 50 fc          	lea    -0x4(%rax),%rdx
    1538:	66 83 78 fc 00       	cmpw   $0x0,-0x4(%rax)
    153d:	0f b7 48 fe          	movzwl -0x2(%rax),%ecx
    1541:	48 89 53 10          	mov    %rdx,0x10(%rbx)
    1545:	0f 85 c0 fe ff ff    	jne    140b <getc@plt+0x34b>
    154b:	66 89 4b 08          	mov    %cx,0x8(%rbx)
    154f:	b8 01 00 00 00       	mov    $0x1,%eax
    1554:	5b                   	pop    %rbx
    1555:	c3                   	ret    
    1556:	66 2e 0f 1f 84 00 00 	cs nopw 0x0(%rax,%rax,1)
    155d:	00 00 00 
    1560:	48 8b 43 10          	mov    0x10(%rbx),%rax
    1564:	48 8d 50 fc          	lea    -0x4(%rax),%rdx
    1568:	66 83 78 fc 00       	cmpw   $0x0,-0x4(%rax)
    156d:	0f b7 48 fe          	movzwl -0x2(%rax),%ecx
    1571:	48 89 53 10          	mov    %rdx,0x10(%rbx)
    1575:	0f 84 90 fe ff ff    	je     140b <getc@plt+0x34b>
    157b:	eb ce                	jmp    154b <getc@plt+0x48b>
    157d:	0f 1f 00             	nopl   (%rax)
    1580:	48 8b 43 10          	mov    0x10(%rbx),%rax
    1584:	48 8d 50 fc          	lea    -0x4(%rax),%rdx
    1588:	66 83 78 fc 00       	cmpw   $0x0,-0x4(%rax)
    158d:	0f b7 48 fe          	movzwl -0x2(%rax),%ecx
    1591:	48 89 53 10          	mov    %rdx,0x10(%rbx)
    1595:	0f 8f 70 fe ff ff    	jg     140b <getc@plt+0x34b>
    159b:	eb ae                	jmp    154b <getc@plt+0x48b>
    159d:	0f 1f 00             	nopl   (%rax)
    15a0:	48 8b 43 10          	mov    0x10(%rbx),%rax
    15a4:	0f b7 50 fe          	movzwl -0x2(%rax),%edx
    15a8:	48 8d 48 fe          	lea    -0x2(%rax),%rcx
    15ac:	66 03 50 fc          	add    -0x4(%rax),%dx
    15b0:	48 89 4b 10          	mov    %rcx,0x10(%rbx)
    15b4:	66 89 50 fc          	mov    %dx,-0x4(%rax)
    15b8:	b8 01 00 00 00       	mov    $0x1,%eax
    15bd:	5b                   	pop    %rbx
    15be:	c3                   	ret    
    15bf:	90                   	nop
    15c0:	31 c0                	xor    %eax,%eax
    15c2:	ff 53 20             	call   *0x20(%rbx)
    15c5:	48 8b 53 10          	mov    0x10(%rbx),%rdx
    15c9:	0f b6 c0             	movzbl %al,%eax
    15cc:	48 8d 4a 02          	lea    0x2(%rdx),%rcx
    15d0:	48 89 4b 10          	mov    %rcx,0x10(%rbx)
    15d4:	66 89 02             	mov    %ax,(%rdx)
    15d7:	b8 01 00 00 00       	mov    $0x1,%eax
    15dc:	5b                   	pop    %rbx
    15dd:	c3                   	ret    
    15de:	66 90                	xchg   %ax,%ax
    15e0:	0f b7 c9             	movzwl %cx,%ecx
    15e3:	83 c2 02             	add    $0x2,%edx
    15e6:	66 0f be 0c 0f       	movsbw (%rdi,%rcx,1),%cx
    15eb:	e9 ce fd ff ff       	jmp    13be <getc@plt+0x2fe>
    15f0:	f3 0f 1e fa          	endbr64 
    15f4:	41 57                	push   %r15
    15f6:	4c 8d 3d eb 27 00 00 	lea    0x27eb(%rip),%r15        # 3de8 <getc@plt+0x2d28>
    15fd:	41 56                	push   %r14
    15ff:	49 89 d6             	mov    %rdx,%r14
    1602:	41 55                	push   %r13
    1604:	49 89 f5             	mov    %rsi,%r13
    1607:	41 54                	push   %r12
    1609:	41 89 fc             	mov    %edi,%r12d
    160c:	55                   	push   %rbp
    160d:	48 8d 2d dc 27 00 00 	lea    0x27dc(%rip),%rbp        # 3df0 <getc@plt+0x2d30>
    1614:	53                   	push   %rbx
    1615:	4c 29 fd             	sub    %r15,%rbp
    1618:	48 83 ec 08          	sub    $0x8,%rsp
    161c:	e8 df f9 ff ff       	call   1000 <free@plt-0x30>
    1621:	48 c1 fd 03          	sar    $0x3,%rbp
    1625:	74 1f                	je     1646 <getc@plt+0x586>
    1627:	31 db                	xor    %ebx,%ebx
    1629:	0f 1f 80 00 00 00 00 	nopl   0x0(%rax)
    1630:	4c 89 f2             	mov    %r14,%rdx
    1633:	4c 89 ee             	mov    %r13,%rsi
    1636:	44 89 e7             	mov    %r12d,%edi
    1639:	41 ff 14 df          	call   *(%r15,%rbx,8)
    163d:	48 83 c3 01          	add    $0x1,%rbx
    1641:	48 39 dd             	cmp    %rbx,%rbp
    1644:	75 ea                	jne    1630 <getc@plt+0x570>
    1646:	48 83 c4 08          	add    $0x8,%rsp
    164a:	5b                   	pop    %rbx
    164b:	5d                   	pop    %rbp
    164c:	41 5c                	pop    %r12
    164e:	41 5d                	pop    %r13
    1650:	41 5e                	pop    %r14
    1652:	41 5f                	pop    %r15
    1654:	c3                   	ret    
    1655:	66 66 2e 0f 1f 84 00 	data16 cs nopw 0x0(%rax,%rax,1)
    165c:	00 00 00 00 
    1660:	f3 0f 1e fa          	endbr64 
    1664:	c3                   	ret    

Disassembly of section .fini:

0000000000001668 <.fini>:
    1668:	f3 0f 1e fa          	endbr64 
    166c:	48 83 ec 08          	sub    $0x8,%rsp
    1670:	48 83 c4 08          	add    $0x8,%rsp
    1674:	c3                   	ret    
